; Function Attrs: nounwind uwtable
define internal void @__cxx_global_array_dtor(ptr readnone captures(none) %0) #5 section ".text.startup" personality ptr @__gxx_personality_v0 {
  br label %2

2:                                                ; preds = %_ZN7rocksdb13OperationInfoD2Ev.exit, %1
  %3 = phi ptr [ getelementptr inbounds nuw (i8, ptr @_ZN7rocksdbL22global_operation_tableE, i64 480), %1 ], [ %4, %_ZN7rocksdb13OperationInfoD2Ev.exit ]
  %4 = getelementptr inbounds i8, ptr %3, i64 -40
  %5 = getelementptr inbounds i8, ptr %3, i64 -32
  %6 = load ptr, ptr %5, align 8, !tbaa !28
  %7 = getelementptr inbounds i8, ptr %3, i64 -16
  %8 = icmp eq ptr %6, %7
  br i1 %8, label %_ZNKSt7__cxx1112basic_stringIcSt11char_traitsIcESaIcEE11_M_is_localEv.exit.thread.i.i.i, label %_ZNKSt7__cxx1112basic_stringIcSt11char_traitsIcESaIcEE11_M_is_localEv.exit.i.i.i

_ZNKSt7__cxx1112basic_stringIcSt11char_traitsIcESaIcEE11_M_is_localEv.exit.thread.i.i.i: ; preds = %2
  %9 = getelementptr inbounds i8, ptr %3, i64 -24
  %10 = load i64, ptr %9, align 8, !tbaa !31
  %11 = icmp ult i64 %10, 16
  tail call void @llvm.assume(i1 %11)
  br label %_ZN7rocksdb13OperationInfoD2Ev.exit

_ZNKSt7__cxx1112basic_stringIcSt11char_traitsIcESaIcEE11_M_is_localEv.exit.i.i.i: ; preds = %2
  %12 = load i64, ptr %7, align 8, !tbaa !30
  %13 = add i64 %12, 1
  tail call void @_ZdlPvm(ptr noundef %6, i64 noundef %13) #36
  br label %_ZN7rocksdb13OperationInfoD2Ev.exit

_ZN7rocksdb13OperationInfoD2Ev.exit:              ; preds = %_ZNKSt7__cxx1112basic_stringIcSt11char_traitsIcESaIcEE11_M_is_localEv.exit.thread.i.i.i, %_ZNKSt7__cxx1112basic_stringIcSt11char_traitsIcESaIcEE11_M_is_localEv.exit.i.i.i
  %14 = icmp eq ptr %4, @_ZN7rocksdbL22global_operation_tableE
  br i1 %14, label %15, label %2

15:                                               ; preds = %_ZN7rocksdb13OperationInfoD2Ev.exit
  ret void
}